; Function Attrs: mustprogress uwtable
define void @_ZN3net19QuicPacketGenerator16SendQueuedFramesEb(ptr noundef nonnull align 8 dereferenceable(472) %0, i1 noundef zeroext %1) local_unnamed_addr #0 align 2 {
  %3 = getelementptr inbounds nuw i8, ptr %0, i64 345
  %4 = getelementptr inbounds nuw i8, ptr %0, i64 346
  %5 = getelementptr inbounds nuw i8, ptr %0, i64 320
  %6 = getelementptr inbounds nuw i8, ptr %0, i64 328
  br i1 %1, label %.split.us, label %.split

.split.us:                                        ; preds = %2, %_ZNK3net19QuicPacketGenerator16HasPendingFramesEv.exit.thread.us
  %7 = load i8, ptr %3, align 1, !tbaa !70, !range !67, !noundef !68
  %8 = trunc nuw i8 %7 to i1
  br i1 %8, label %_ZNK3net19QuicPacketGenerator16HasPendingFramesEv.exit.thread.us, label %9

9:                                                ; preds = %.split.us
  %10 = load i8, ptr %4, align 2, !tbaa !71, !range !67, !noundef !68
  %11 = trunc nuw i8 %10 to i1
  br i1 %11, label %_ZNK3net19QuicPacketGenerator16HasPendingFramesEv.exit.thread.us, label %_ZNK3net19QuicPacketGenerator16HasPendingFramesEv.exit.us

_ZNK3net19QuicPacketGenerator16HasPendingFramesEv.exit.us: ; preds = %9
  %12 = load ptr, ptr %5, align 8, !tbaa !72
  %13 = load ptr, ptr %6, align 8, !tbaa !72
  %.not.us = icmp eq ptr %12, %13
  br i1 %.not.us, label %.critedge, label %_ZNK3net19QuicPacketGenerator16HasPendingFramesEv.exit.thread.us

_ZNK3net19QuicPacketGenerator16HasPendingFramesEv.exit.thread.us: ; preds = %_ZNK3net19QuicPacketGenerator16HasPendingFramesEv.exit.us, %9, %.split.us
  %14 = tail call noundef zeroext i1 @_ZN3net19QuicPacketGenerator19AddNextPendingFrameEv(ptr noundef nonnull align 8 dereferenceable(472) %0)
  br label %.split.us, !llvm.loop !75

.split:                                           ; preds = %2, %.critedge2
  %15 = load i8, ptr %3, align 1, !tbaa !70, !range !67, !noundef !68
  %16 = trunc nuw i8 %15 to i1
  %.pre = load i8, ptr %4, align 2, !range !67
  br i1 %16, label %_ZNK3net19QuicPacketGenerator16HasPendingFramesEv.exit.thread, label %17

17:                                               ; preds = %.split
  %18 = trunc nuw i8 %.pre to i1
  br i1 %18, label %_ZNK3net19QuicPacketGenerator16HasPendingFramesEv.exit.thread, label %_ZNK3net19QuicPacketGenerator16HasPendingFramesEv.exit

_ZNK3net19QuicPacketGenerator16HasPendingFramesEv.exit: ; preds = %17
  %19 = load ptr, ptr %5, align 8, !tbaa !72
  %20 = load ptr, ptr %6, align 8, !tbaa !72
  %.not = icmp eq ptr %19, %20
  br i1 %.not, label %.critedge, label %_ZNK3net19QuicPacketGenerator16HasPendingFramesEv.exit.thread

_ZNK3net19QuicPacketGenerator16HasPendingFramesEv.exit.thread: ; preds = %.split, %17, %_ZNK3net19QuicPacketGenerator16HasPendingFramesEv.exit
  %21 = xor i8 %.pre, 1
  %not..i = select i1 %16, i8 0, i8 %21
  %22 = load ptr, ptr %0, align 8, !tbaa !3
  %23 = load ptr, ptr %22, align 8, !tbaa !73
  %24 = getelementptr inbounds nuw i8, ptr %23, i64 32
  %25 = load ptr, ptr %24, align 8
  %26 = tail call noundef zeroext i1 %25(ptr noundef nonnull align 8 dereferenceable(8) %22, i8 noundef signext %not..i, i8 noundef signext 0)
  br i1 %26, label %.critedge2, label %.critedge.thread

.critedge2:                                       ; preds = %_ZNK3net19QuicPacketGenerator16HasPendingFramesEv.exit.thread
  %27 = tail call noundef zeroext i1 @_ZN3net19QuicPacketGenerator19AddNextPendingFrameEv(ptr noundef nonnull align 8 dereferenceable(472) %0)
  br label %.split, !llvm.loop !75

.critedge:                                        ; preds = %_ZNK3net19QuicPacketGenerator16HasPendingFramesEv.exit, %_ZNK3net19QuicPacketGenerator16HasPendingFramesEv.exit.us
  br i1 %1, label %31, label %.critedge.thread

.critedge.thread:                                 ; preds = %_ZNK3net19QuicPacketGenerator16HasPendingFramesEv.exit.thread, %.critedge
  %28 = getelementptr inbounds nuw i8, ptr %0, i64 344
  %29 = load i8, ptr %28, align 8, !tbaa !77, !range !67, !noundef !68
  %30 = trunc nuw i8 %29 to i1
  br i1 %30, label %33, label %31

31:                                               ; preds = %.critedge.thread, %.critedge
  %32 = getelementptr inbounds nuw i8, ptr %0, i64 8
  tail call void @_ZN3net17QuicPacketCreator5FlushEv(ptr noundef nonnull align 8 dereferenceable(312) %32)
  br label %33

33:                                               ; preds = %31, %.critedge.thread
  ret void
}